target datalayout = "e-m:e-p270:32:32-p271:32:32-p272:64:64-i64:64-i128:128-f80:128-n8:16:32:64-S128"
target triple = "x86_64-pc-linux-gnu"

%struct.tm = type { i32, i32, i32, i32, i32, i32, i32, i32, i32, i64, ptr }
%union.av_intfloat64 = type { i64 }

@.str.39 = private unnamed_addr constant [18 x i8] c"%Y-%m-%d %H:%M:%S\00", align 1

; Function Attrs: alwaysinline nounwind uwtable
define internal double @av_int2double(i64 noundef %0) #1 {
  %2 = alloca i64, align 8
  %3 = alloca %union.av_intfloat64, align 8
  store i64 %0, ptr %2, align 8, !tbaa !39
  call void @llvm.lifetime.start.p0(i64 8, ptr %3) #8
  %4 = load i64, ptr %2, align 8, !tbaa !39
  store i64 %4, ptr %3, align 8, !tbaa !68
  %5 = load double, ptr %3, align 8, !tbaa !68
  call void @llvm.lifetime.end.p0(i64 8, ptr %3) #8
  ret double %5
}

; Function Attrs: nounwind uwtable
define internal i32 @oledate_to_iso8601(ptr noundef %0, i32 noundef %1, i64 noundef %2) #0 {
  %4 = alloca i32, align 4
  %5 = alloca ptr, align 8
  %6 = alloca i32, align 4
  %7 = alloca i64, align 8
  %8 = alloca i64, align 8
  %9 = alloca %struct.tm, align 8
  %10 = alloca ptr, align 8
  %11 = alloca i32, align 4
  store ptr %0, ptr %5, align 8, !tbaa !67
  store i32 %1, ptr %6, align 4, !tbaa !38
  store i64 %2, ptr %7, align 8, !tbaa !39
  call void @llvm.lifetime.start.p0(i64 8, ptr %8) #8
  %12 = load i64, ptr %7, align 8, !tbaa !39
  %13 = call nsz double @av_int2double(i64 noundef %12)
  %14 = fsub nsz double %13, 2.556900e+04
  %15 = fmul nsz double %14, 8.640000e+04
  %16 = fptosi double %15 to i64
  store i64 %16, ptr %8, align 8, !tbaa !39
  call void @llvm.lifetime.start.p0(i64 56, ptr %9) #8
  call void @llvm.lifetime.start.p0(i64 8, ptr %10) #8
  %17 = call ptr @gmtime_r(ptr noundef %8, ptr noundef %9) #8
  store ptr %17, ptr %10, align 8, !tbaa !122
  %18 = load ptr, ptr %10, align 8, !tbaa !122
  %19 = icmp ne ptr %18, null
  br i1 %19, label %21, label %20

20:                                               ; preds = %3
  store i32 -1, ptr %4, align 4
  store i32 1, ptr %11, align 4
  br label %30

21:                                               ; preds = %3
  %22 = load ptr, ptr %5, align 8, !tbaa !67
  %23 = load i32, ptr %6, align 4, !tbaa !38
  %24 = sext i32 %23 to i64
  %25 = load ptr, ptr %10, align 8, !tbaa !122
  %26 = call i64 @strftime(ptr noundef %22, i64 noundef %24, ptr noundef @.str.39, ptr noundef %25) #8
  %27 = icmp ne i64 %26, 0
  br i1 %27, label %29, label %28

28:                                               ; preds = %21
  store i32 -1, ptr %4, align 4
  store i32 1, ptr %11, align 4
  br label %30

29:                                               ; preds = %21
  store i32 0, ptr %4, align 4
  store i32 1, ptr %11, align 4
  br label %30

30:                                               ; preds = %29, %28, %20
  call void @llvm.lifetime.end.p0(i64 8, ptr %10) #8
  call void @llvm.lifetime.end.p0(i64 56, ptr %9) #8
  call void @llvm.lifetime.end.p0(i64 8, ptr %8) #8
  %31 = load i32, ptr %4, align 4
  ret i32 %31
}