; Function Attrs: nounwind uwtable
define internal fastcc range(i32 -1, 1) i32 @oledate_to_iso8601(ptr noundef nonnull %0, i64 noundef %1) unnamed_addr #1 {
  %3 = alloca i64, align 8
  %4 = alloca %struct.tm, align 8
  call void @llvm.lifetime.start.p0(i64 8, ptr nonnull %3) #11
  %5 = bitcast i64 %1 to double
  %6 = fadd nsz double %5, -2.556900e+04
  %7 = fmul nsz double %6, 8.640000e+04
  %8 = fptosi double %7 to i64
  store i64 %8, ptr %3, align 8, !tbaa !37
  call void @llvm.lifetime.start.p0(i64 56, ptr nonnull %4) #11
  %9 = call ptr @gmtime_r(ptr noundef nonnull %3, ptr noundef nonnull %4) #11
  %.not = icmp eq ptr %9, null
  br i1 %.not, label %12, label %10

10:                                               ; preds = %2
  %11 = call i64 @strftime(ptr noundef nonnull %0, i64 noundef 36, ptr noundef nonnull @.str.39, ptr noundef nonnull %9) #11
  %.not6 = icmp eq i64 %11, 0
  %. = sext i1 %.not6 to i32
  br label %12

12:                                               ; preds = %10, %2
  %.0 = phi i32 [ -1, %2 ], [ %., %10 ]
  call void @llvm.lifetime.end.p0(i64 56, ptr nonnull %4) #11
  call void @llvm.lifetime.end.p0(i64 8, ptr nonnull %3) #11
  ret i32 %.0
}